; Function Attrs: nounwind uwtable
define ptr @l_Std_DHashMap_Internal_AssocList_get_x21___at_Lean_Compiler_LCNF_FloatLetIn_dontFloat___spec__1(ptr noundef %0, ptr noundef %1, ptr noundef %2) local_unnamed_addr #1 {
  %4 = ptrtoint ptr %1 to i64
  %5 = and i64 %4, 1
  %.not.i31.i = icmp eq i64 %5, 0
  %6 = lshr i64 %4, 1
  %7 = trunc i64 %6 to i32
  %8 = getelementptr i8, ptr %1, i64 4
  %9 = getelementptr inbounds nuw i8, ptr %1, i64 8
  br label %lean_inc.exit

lean_inc.exit:                                    ; preds = %lean_inc.exit.backedge, %3
  %.016 = phi ptr [ %2, %3 ], [ %28, %lean_inc.exit.backedge ]
  %10 = ptrtoint ptr %.016 to i64
  %11 = and i64 %10, 1
  %.not.i18 = icmp eq i64 %11, 0
  br i1 %.not.i18, label %15, label %12

12:                                               ; preds = %lean_inc.exit
  %13 = lshr i64 %10, 1
  %14 = trunc i64 %13 to i32
  br label %lean_obj_tag.exit

15:                                               ; preds = %lean_inc.exit
  %16 = getelementptr i8, ptr %.016, i64 4
  %.val.i = load i32, ptr %16, align 4
  %17 = lshr i32 %.val.i, 24
  br label %lean_obj_tag.exit

lean_obj_tag.exit:                                ; preds = %12, %15
  %.0.i = phi i32 [ %14, %12 ], [ %17, %15 ]
  %18 = icmp eq i32 %.0.i, 0
  br i1 %18, label %19, label %22

19:                                               ; preds = %lean_obj_tag.exit
  %20 = load ptr, ptr @l_Std_DHashMap_Internal_AssocList_get_x21___at_Lean_Compiler_LCNF_FloatLetIn_dontFloat___spec__1___closed__4, align 8, !tbaa !4
  %21 = tail call ptr @l_panic___rarg(ptr noundef %0, ptr noundef %20) #4
  br label %lean_inc.exit.thread

22:                                               ; preds = %lean_obj_tag.exit
  %23 = getelementptr inbounds nuw i8, ptr %.016, i64 8
  %24 = load ptr, ptr %23, align 8, !tbaa !4
  %25 = getelementptr inbounds nuw i8, ptr %.016, i64 16
  %26 = load ptr, ptr %25, align 8, !tbaa !4
  %27 = getelementptr inbounds nuw i8, ptr %.016, i64 24
  %28 = load ptr, ptr %27, align 8, !tbaa !4
  %29 = ptrtoint ptr %24 to i64
  %30 = and i64 %29, 1
  %.not.i.i = icmp eq i64 %30, 0
  br i1 %.not.i.i, label %34, label %31

31:                                               ; preds = %22
  %32 = lshr i64 %29, 1
  %33 = trunc i64 %32 to i32
  br label %lean_obj_tag.exit.i

34:                                               ; preds = %22
  %35 = getelementptr i8, ptr %24, i64 4
  %.val.i.i = load i32, ptr %35, align 4
  %36 = lshr i32 %.val.i.i, 24
  br label %lean_obj_tag.exit.i

lean_obj_tag.exit.i:                              ; preds = %34, %31
  %.0.i.i = phi i32 [ %33, %31 ], [ %36, %34 ]
  switch i32 %.0.i.i, label %53 [
    i32 0, label %37
    i32 1, label %47
    i32 2, label %50
  ]

37:                                               ; preds = %lean_obj_tag.exit.i
  br i1 %.not.i31.i, label %38, label %lean_obj_tag.exit22.i

38:                                               ; preds = %37
  %.val.i21.i = load i32, ptr %8, align 4
  %39 = lshr i32 %.val.i21.i, 24
  br label %lean_obj_tag.exit22.i

lean_obj_tag.exit22.i:                            ; preds = %37, %38
  %.0.i20.i = phi i32 [ %39, %38 ], [ %7, %37 ]
  %40 = icmp eq i32 %.0.i20.i, 0
  br i1 %40, label %41, label %lean_inc.exit.backedge

41:                                               ; preds = %lean_obj_tag.exit22.i
  %42 = getelementptr inbounds nuw i8, ptr %24, i64 8
  %43 = load ptr, ptr %42, align 8, !tbaa !4
  %44 = load ptr, ptr %9, align 8, !tbaa !4
  %45 = tail call zeroext i8 @lean_name_eq(ptr noundef %43, ptr noundef %44) #4
  %46 = icmp eq i8 %45, 0
  br i1 %46, label %lean_inc.exit.backedge, label %56

47:                                               ; preds = %lean_obj_tag.exit.i
  br i1 %.not.i31.i, label %48, label %lean_obj_tag.exit26.i

48:                                               ; preds = %47
  %.val.i25.i = load i32, ptr %8, align 4
  %49 = lshr i32 %.val.i25.i, 24
  br label %lean_obj_tag.exit26.i

lean_obj_tag.exit26.i:                            ; preds = %47, %48
  %.0.i24.i = phi i32 [ %49, %48 ], [ %7, %47 ]
  %.not30 = icmp eq i32 %.0.i24.i, 1
  br i1 %.not30, label %56, label %lean_inc.exit.backedge

50:                                               ; preds = %lean_obj_tag.exit.i
  br i1 %.not.i31.i, label %51, label %lean_obj_tag.exit30.i

51:                                               ; preds = %50
  %.val.i29.i = load i32, ptr %8, align 4
  %52 = lshr i32 %.val.i29.i, 24
  br label %lean_obj_tag.exit30.i

lean_obj_tag.exit30.i:                            ; preds = %50, %51
  %.0.i28.i = phi i32 [ %52, %51 ], [ %7, %50 ]
  %.not29 = icmp eq i32 %.0.i28.i, 2
  br i1 %.not29, label %56, label %lean_inc.exit.backedge

lean_inc.exit.backedge:                           ; preds = %lean_obj_tag.exit30.i, %lean_obj_tag.exit26.i, %41, %lean_obj_tag.exit22.i, %l_Lean_Compiler_LCNF_FloatLetIn_beqDecision____x40_Lean_Compiler_LCNF_FloatLetIn___hyg_63_.exit
  br label %lean_inc.exit

53:                                               ; preds = %lean_obj_tag.exit.i
  br i1 %.not.i31.i, label %54, label %l_Lean_Compiler_LCNF_FloatLetIn_beqDecision____x40_Lean_Compiler_LCNF_FloatLetIn___hyg_63_.exit

54:                                               ; preds = %53
  %.val.i33.i = load i32, ptr %8, align 4
  %55 = lshr i32 %.val.i33.i, 24
  br label %l_Lean_Compiler_LCNF_FloatLetIn_beqDecision____x40_Lean_Compiler_LCNF_FloatLetIn___hyg_63_.exit

l_Lean_Compiler_LCNF_FloatLetIn_beqDecision____x40_Lean_Compiler_LCNF_FloatLetIn___hyg_63_.exit: ; preds = %54, %53
  %.0.i32.i = phi i32 [ %55, %54 ], [ %7, %53 ]
  %.not31 = icmp eq i32 %.0.i32.i, 3
  br i1 %.not31, label %56, label %lean_inc.exit.backedge

56:                                               ; preds = %lean_obj_tag.exit30.i, %lean_obj_tag.exit26.i, %41, %l_Lean_Compiler_LCNF_FloatLetIn_beqDecision____x40_Lean_Compiler_LCNF_FloatLetIn___hyg_63_.exit
  %57 = ptrtoint ptr %0 to i64
  %58 = and i64 %57, 1
  %.not = icmp eq i64 %58, 0
  br i1 %.not, label %59, label %lean_dec.exit

59:                                               ; preds = %56
  %60 = load i32, ptr %0, align 4, !tbaa !8
  %61 = icmp sgt i32 %60, 1
  br i1 %61, label %62, label %64, !prof !11

62:                                               ; preds = %59
  %63 = add nsw i32 %60, -1
  store i32 %63, ptr %0, align 4, !tbaa !8
  br label %lean_dec.exit

64:                                               ; preds = %59
  %.not.i = icmp eq i32 %60, 0
  br i1 %.not.i, label %lean_dec.exit, label %65

65:                                               ; preds = %64
  tail call void @lean_dec_ref_cold(ptr noundef nonnull %0) #4
  br label %lean_dec.exit

lean_dec.exit:                                    ; preds = %65, %64, %62, %56
  %66 = ptrtoint ptr %26 to i64
  %67 = and i64 %66, 1
  %.not28 = icmp eq i64 %67, 0
  br i1 %.not28, label %68, label %lean_inc.exit.thread

68:                                               ; preds = %lean_dec.exit
  %.val.i20 = load i32, ptr %26, align 4, !tbaa !8
  %69 = icmp sgt i32 %.val.i20, 0
  br i1 %69, label %70, label %72, !prof !11

70:                                               ; preds = %68
  %71 = add nuw i32 %.val.i20, 1
  store i32 %71, ptr %26, align 4, !tbaa !8
  br label %lean_inc.exit.thread

72:                                               ; preds = %68
  %.not.i21 = icmp eq i32 %.val.i20, 0
  br i1 %.not.i21, label %lean_inc.exit.thread, label %73

73:                                               ; preds = %72
  tail call void @lean_inc_ref_cold(ptr noundef nonnull %26) #4
  br label %lean_inc.exit.thread

lean_inc.exit.thread:                             ; preds = %lean_dec.exit, %70, %72, %73, %19
  %.1 = phi ptr [ %21, %19 ], [ %26, %73 ], [ %26, %72 ], [ %26, %70 ], [ %26, %lean_dec.exit ]
  ret ptr %.1
}